
Day9_2.elf:     file format elf32-littlearm

Sections:
Idx Name          Size      VMA       LMA       File off  Algn
  0 .isr_vector   00000188  08000000  08000000  00001000  2**0
                  CONTENTS, ALLOC, LOAD, READONLY, DATA
  1 .text         0000073c  08000188  08000188  00001188  2**2
                  CONTENTS, ALLOC, LOAD, READONLY, CODE
  2 .rodata       00000000  080008c4  080008c4  00002004  2**0
                  CONTENTS, ALLOC, LOAD, DATA
  3 .ARM.extab    00000000  080008c4  080008c4  00002004  2**0
                  CONTENTS
  4 .ARM          00000000  080008c4  080008c4  00002004  2**0
                  CONTENTS
  5 .preinit_array 00000000  080008c4  080008c4  00002004  2**0
                  CONTENTS, ALLOC, LOAD, DATA
  6 .init_array   00000004  080008c4  080008c4  000018c4  2**2
                  CONTENTS, ALLOC, LOAD, READONLY, DATA
  7 .fini_array   00000004  080008c8  080008c8  000018c8  2**2
                  CONTENTS, ALLOC, LOAD, READONLY, DATA
  8 .data         00000004  20000000  080008cc  00002000  2**2
                  CONTENTS, ALLOC, LOAD, DATA
  9 .ccmram       00000000  10000000  10000000  00002004  2**0
                  CONTENTS
 10 .bss          0000001c  20000004  20000004  00002004  2**2
                  ALLOC
 11 ._user_heap_stack 00000600  20000020  20000020  00002004  2**0
                  ALLOC
 12 .ARM.attributes 0000002a  00000000  00000000  00002004  2**0
                  CONTENTS, READONLY
 13 .debug_info   000015c4  00000000  00000000  0000202e  2**0
                  CONTENTS, READONLY, DEBUGGING, OCTETS
 14 .debug_abbrev 00000715  00000000  00000000  000035f2  2**0
                  CONTENTS, READONLY, DEBUGGING, OCTETS
 15 .debug_aranges 00000150  00000000  00000000  00003d08  2**3
                  CONTENTS, READONLY, DEBUGGING, OCTETS
 16 .debug_rnglists 000000e3  00000000  00000000  00003e58  2**0
                  CONTENTS, READONLY, DEBUGGING, OCTETS
 17 .debug_macro  00018424  00000000  00000000  00003f3b  2**0
                  CONTENTS, READONLY, DEBUGGING, OCTETS
 18 .debug_line   00001aad  00000000  00000000  0001c35f  2**0
                  CONTENTS, READONLY, DEBUGGING, OCTETS
 19 .debug_str    0008be2c  00000000  00000000  0001de0c  2**0
                  CONTENTS, READONLY, DEBUGGING, OCTETS
 20 .comment      00000043  00000000  00000000  000a9c38  2**0
                  CONTENTS, READONLY
 21 .debug_frame  00000380  00000000  00000000  000a9c7c  2**2
                  CONTENTS, READONLY, DEBUGGING, OCTETS
 22 .debug_loclists 0000001f  00000000  00000000  000a9ffc  2**0
                  CONTENTS, READONLY, DEBUGGING, OCTETS
 23 .debug_line_str 0000005c  00000000  00000000  000aa01b  2**0
                  CONTENTS, READONLY, DEBUGGING, OCTETS

Disassembly of section .text:

08000188 <__do_global_dtors_aux>:
 8000188:	b510      	push	{r4, lr}
 800018a:	4c05      	ldr	r4, [pc, #20]	@ (80001a0 <__do_global_dtors_aux+0x18>)
 800018c:	7823      	ldrb	r3, [r4, #0]
 800018e:	b933      	cbnz	r3, 800019e <__do_global_dtors_aux+0x16>
 8000190:	4b04      	ldr	r3, [pc, #16]	@ (80001a4 <__do_global_dtors_aux+0x1c>)
 8000192:	b113      	cbz	r3, 800019a <__do_global_dtors_aux+0x12>
 8000194:	4804      	ldr	r0, [pc, #16]	@ (80001a8 <__do_global_dtors_aux+0x20>)
 8000196:	f3af 8000 	nop.w
 800019a:	2301      	movs	r3, #1
 800019c:	7023      	strb	r3, [r4, #0]
 800019e:	bd10      	pop	{r4, pc}
 80001a0:	20000004 	.word	0x20000004
 80001a4:	00000000 	.word	0x00000000
 80001a8:	080008ac 	.word	0x080008ac

080001ac <frame_dummy>:
 80001ac:	b508      	push	{r3, lr}
 80001ae:	4b03      	ldr	r3, [pc, #12]	@ (80001bc <frame_dummy+0x10>)
 80001b0:	b11b      	cbz	r3, 80001ba <frame_dummy+0xe>
 80001b2:	4903      	ldr	r1, [pc, #12]	@ (80001c0 <frame_dummy+0x14>)
 80001b4:	4803      	ldr	r0, [pc, #12]	@ (80001c4 <frame_dummy+0x18>)
 80001b6:	f3af 8000 	nop.w
 80001ba:	bd08      	pop	{r3, pc}
 80001bc:	00000000 	.word	0x00000000
 80001c0:	20000008 	.word	0x20000008
 80001c4:	080008ac 	.word	0x080008ac

080001c8 <DelayMs>:
uint32_t DWT_Init(void);

#ifndef DELAY_MS
#define DELAY_MS

static inline void DelayMs(volatile uint32_t ms) {
 80001c8:	b480      	push	{r7}
 80001ca:	b085      	sub	sp, #20
 80001cc:	af00      	add	r7, sp, #0
 80001ce:	6078      	str	r0, [r7, #4]
	uint32_t init_ticks = DWT->CYCCNT;
 80001d0:	4b0e      	ldr	r3, [pc, #56]	@ (800020c <DelayMs+0x44>)
 80001d2:	685b      	ldr	r3, [r3, #4]
 80001d4:	60fb      	str	r3, [r7, #12]
	uint32_t ticks = (SystemCoreClock / 1000);
 80001d6:	4b0e      	ldr	r3, [pc, #56]	@ (8000210 <DelayMs+0x48>)
 80001d8:	681b      	ldr	r3, [r3, #0]
 80001da:	4a0e      	ldr	r2, [pc, #56]	@ (8000214 <DelayMs+0x4c>)
 80001dc:	fba2 2303 	umull	r2, r3, r2, r3
 80001e0:	099b      	lsrs	r3, r3, #6
 80001e2:	60bb      	str	r3, [r7, #8]
	ms *= ticks;
 80001e4:	687b      	ldr	r3, [r7, #4]
 80001e6:	68ba      	ldr	r2, [r7, #8]
 80001e8:	fb02 f303 	mul.w	r3, r2, r3
 80001ec:	607b      	str	r3, [r7, #4]
	while ((DWT->CYCCNT - init_ticks) < ms);
 80001ee:	bf00      	nop
 80001f0:	4b06      	ldr	r3, [pc, #24]	@ (800020c <DelayMs+0x44>)
 80001f2:	685a      	ldr	r2, [r3, #4]
 80001f4:	68fb      	ldr	r3, [r7, #12]
 80001f6:	1ad2      	subs	r2, r2, r3
 80001f8:	687b      	ldr	r3, [r7, #4]
 80001fa:	429a      	cmp	r2, r3
 80001fc:	d3f8      	bcc.n	80001f0 <DelayMs+0x28>
}
 80001fe:	bf00      	nop
 8000200:	bf00      	nop
 8000202:	3714      	adds	r7, #20
 8000204:	46bd      	mov	sp, r7
 8000206:	bc80      	pop	{r7}
 8000208:	4770      	bx	lr
 800020a:	bf00      	nop
 800020c:	e0001000 	.word	0xe0001000
 8000210:	20000000 	.word	0x20000000
 8000214:	10624dd3 	.word	0x10624dd3

08000218 <main>:
#if !defined(__SOFT_FP__) && defined(__ARM_FP)
  #warning "FPU is not initialized, but the project is compiling for an FPU. Please initialize the FPU before use."
#endif

int main(void)
{
 8000218:	b580      	push	{r7, lr}
 800021a:	b084      	sub	sp, #16
 800021c:	af00      	add	r7, sp, #0
	int ret;
	LIS_Data val;
	SystemInit();
 800021e:	f000 fac1 	bl	80007a4 <SystemInit>
	DelayMs(1);
 8000222:	2001      	movs	r0, #1
 8000224:	f7ff ffd0 	bl	80001c8 <DelayMs>

	LEDInIt(LED_green);
 8000228:	200c      	movs	r0, #12
 800022a:	f000 f86b 	bl	8000304 <LEDInIt>
		LEDInIt(LED_orange);
 800022e:	200d      	movs	r0, #13
 8000230:	f000 f868 	bl	8000304 <LEDInIt>
		LEDInIt(LED_red);
 8000234:	200e      	movs	r0, #14
 8000236:	f000 f865 	bl	8000304 <LEDInIt>
		LEDInIt(LED_blue);
 800023a:	200f      	movs	r0, #15
 800023c:	f000 f862 	bl	8000304 <LEDInIt>
	LIS_Init();
 8000240:	f000 f972 	bl	8000528 <LIS_Init>

	DelayMs(1000);
 8000244:	f44f 707a 	mov.w	r0, #1000	@ 0x3e8
 8000248:	f7ff ffbe 	bl	80001c8 <DelayMs>
		ret = LIS_DRdy();
 800024c:	f000 f9c9 	bl	80005e2 <LIS_DRdy>
 8000250:	60f8      	str	r0, [r7, #12]

			while(1)
			{
				if(ret)
 8000252:	68fb      	ldr	r3, [r7, #12]
 8000254:	2b00      	cmp	r3, #0
 8000256:	d0fc      	beq.n	8000252 <main+0x3a>
				{
					val = LIS_GetData();
 8000258:	1d3b      	adds	r3, r7, #4
 800025a:	4618      	mov	r0, r3
 800025c:	f000 f97b 	bl	8000556 <LIS_GetData>
					if(val.x < 200)
 8000260:	f9b7 3004 	ldrsh.w	r3, [r7, #4]
 8000264:	2bc7      	cmp	r3, #199	@ 0xc7
 8000266:	dc04      	bgt.n	8000272 <main+0x5a>
						LEDblink(LED_green,500);
 8000268:	f44f 71fa 	mov.w	r1, #500	@ 0x1f4
 800026c:	200c      	movs	r0, #12
 800026e:	f000 f8d1 	bl	8000414 <LEDblink>

					if(val.y < 200)
 8000272:	f9b7 3006 	ldrsh.w	r3, [r7, #6]
 8000276:	2bc7      	cmp	r3, #199	@ 0xc7
 8000278:	dc04      	bgt.n	8000284 <main+0x6c>
						LEDblink(LED_blue,500);
 800027a:	f44f 71fa 	mov.w	r1, #500	@ 0x1f4
 800027e:	200f      	movs	r0, #15
 8000280:	f000 f8c8 	bl	8000414 <LEDblink>

					if(val.x > 200)
 8000284:	f9b7 3004 	ldrsh.w	r3, [r7, #4]
 8000288:	2bc8      	cmp	r3, #200	@ 0xc8
 800028a:	dd04      	ble.n	8000296 <main+0x7e>
						LEDblink(LED_red,500);
 800028c:	f44f 71fa 	mov.w	r1, #500	@ 0x1f4
 8000290:	200e      	movs	r0, #14
 8000292:	f000 f8bf 	bl	8000414 <LEDblink>

					if(val.y > 200)
 8000296:	f9b7 3006 	ldrsh.w	r3, [r7, #6]
 800029a:	2bc8      	cmp	r3, #200	@ 0xc8
 800029c:	dd04      	ble.n	80002a8 <main+0x90>
						LEDblink(LED_orange,500);
 800029e:	f44f 71fa 	mov.w	r1, #500	@ 0x1f4
 80002a2:	200d      	movs	r0, #13
 80002a4:	f000 f8b6 	bl	8000414 <LEDblink>

							DelayMs(500);
 80002a8:	f44f 70fa 	mov.w	r0, #500	@ 0x1f4
 80002ac:	f7ff ff8c 	bl	80001c8 <DelayMs>
				if(ret)
 80002b0:	e7cf      	b.n	8000252 <main+0x3a>
	...

080002b4 <DelayMs>:
static inline void DelayMs(volatile uint32_t ms) {
 80002b4:	b480      	push	{r7}
 80002b6:	b085      	sub	sp, #20
 80002b8:	af00      	add	r7, sp, #0
 80002ba:	6078      	str	r0, [r7, #4]
	uint32_t init_ticks = DWT->CYCCNT;
 80002bc:	4b0e      	ldr	r3, [pc, #56]	@ (80002f8 <DelayMs+0x44>)
 80002be:	685b      	ldr	r3, [r3, #4]
 80002c0:	60fb      	str	r3, [r7, #12]
	uint32_t ticks = (SystemCoreClock / 1000);
 80002c2:	4b0e      	ldr	r3, [pc, #56]	@ (80002fc <DelayMs+0x48>)
 80002c4:	681b      	ldr	r3, [r3, #0]
 80002c6:	4a0e      	ldr	r2, [pc, #56]	@ (8000300 <DelayMs+0x4c>)
 80002c8:	fba2 2303 	umull	r2, r3, r2, r3
 80002cc:	099b      	lsrs	r3, r3, #6
 80002ce:	60bb      	str	r3, [r7, #8]
	ms *= ticks;
 80002d0:	687b      	ldr	r3, [r7, #4]
 80002d2:	68ba      	ldr	r2, [r7, #8]
 80002d4:	fb02 f303 	mul.w	r3, r2, r3
 80002d8:	607b      	str	r3, [r7, #4]
	while ((DWT->CYCCNT - init_ticks) < ms);
 80002da:	bf00      	nop
 80002dc:	4b06      	ldr	r3, [pc, #24]	@ (80002f8 <DelayMs+0x44>)
 80002de:	685a      	ldr	r2, [r3, #4]
 80002e0:	68fb      	ldr	r3, [r7, #12]
 80002e2:	1ad2      	subs	r2, r2, r3
 80002e4:	687b      	ldr	r3, [r7, #4]
 80002e6:	429a      	cmp	r2, r3
 80002e8:	d3f8      	bcc.n	80002dc <DelayMs+0x28>
}
 80002ea:	bf00      	nop
 80002ec:	bf00      	nop
 80002ee:	3714      	adds	r7, #20
 80002f0:	46bd      	mov	sp, r7
 80002f2:	bc80      	pop	{r7}
 80002f4:	4770      	bx	lr
 80002f6:	bf00      	nop
 80002f8:	e0001000 	.word	0xe0001000
 80002fc:	20000000 	.word	0x20000000
 8000300:	10624dd3 	.word	0x10624dd3

08000304 <LEDInIt>:
#include "myled.h"//my header file
#include "stm32f4xx.h"//stm32f4 header file

void LEDInIt(uint32_t pin) //function to initialize in built LED
{
 8000304:	b480      	push	{r7}
 8000306:	b083      	sub	sp, #12
 8000308:	af00      	add	r7, sp, #0
 800030a:	6078      	str	r0, [r7, #4]
	RCC->AHB1ENR |= BV(LEDGPIO_en);
 800030c:	4b29      	ldr	r3, [pc, #164]	@ (80003b4 <LEDInIt+0xb0>)
 800030e:	6b1b      	ldr	r3, [r3, #48]	@ 0x30
 8000310:	4a28      	ldr	r2, [pc, #160]	@ (80003b4 <LEDInIt+0xb0>)
 8000312:	f043 0308 	orr.w	r3, r3, #8
 8000316:	6313      	str	r3, [r2, #48]	@ 0x30
	LEDGPIO->MODER &= ~BV(pin*2+1);
 8000318:	4b27      	ldr	r3, [pc, #156]	@ (80003b8 <LEDInIt+0xb4>)
 800031a:	681b      	ldr	r3, [r3, #0]
 800031c:	687a      	ldr	r2, [r7, #4]
 800031e:	0052      	lsls	r2, r2, #1
 8000320:	3201      	adds	r2, #1
 8000322:	2101      	movs	r1, #1
 8000324:	fa01 f202 	lsl.w	r2, r1, r2
 8000328:	43d2      	mvns	r2, r2
 800032a:	4611      	mov	r1, r2
 800032c:	4a22      	ldr	r2, [pc, #136]	@ (80003b8 <LEDInIt+0xb4>)
 800032e:	400b      	ands	r3, r1
 8000330:	6013      	str	r3, [r2, #0]
	LEDGPIO->MODER |= BV(pin*2);
 8000332:	4b21      	ldr	r3, [pc, #132]	@ (80003b8 <LEDInIt+0xb4>)
 8000334:	681b      	ldr	r3, [r3, #0]
 8000336:	687a      	ldr	r2, [r7, #4]
 8000338:	0052      	lsls	r2, r2, #1
 800033a:	2101      	movs	r1, #1
 800033c:	fa01 f202 	lsl.w	r2, r1, r2
 8000340:	4611      	mov	r1, r2
 8000342:	4a1d      	ldr	r2, [pc, #116]	@ (80003b8 <LEDInIt+0xb4>)
 8000344:	430b      	orrs	r3, r1
 8000346:	6013      	str	r3, [r2, #0]
	LEDGPIO->OSPEEDR &= ~BV(pin*2+1) | BV(pin*2);
 8000348:	4b1b      	ldr	r3, [pc, #108]	@ (80003b8 <LEDInIt+0xb4>)
 800034a:	689b      	ldr	r3, [r3, #8]
 800034c:	687a      	ldr	r2, [r7, #4]
 800034e:	0052      	lsls	r2, r2, #1
 8000350:	3201      	adds	r2, #1
 8000352:	2101      	movs	r1, #1
 8000354:	fa01 f202 	lsl.w	r2, r1, r2
 8000358:	43d1      	mvns	r1, r2
 800035a:	687a      	ldr	r2, [r7, #4]
 800035c:	0052      	lsls	r2, r2, #1
 800035e:	2001      	movs	r0, #1
 8000360:	fa00 f202 	lsl.w	r2, r0, r2
 8000364:	430a      	orrs	r2, r1
 8000366:	4611      	mov	r1, r2
 8000368:	4a13      	ldr	r2, [pc, #76]	@ (80003b8 <LEDInIt+0xb4>)
 800036a:	400b      	ands	r3, r1
 800036c:	6093      	str	r3, [r2, #8]
	LEDGPIO->PUPDR &= ~BV(pin*2+1) | BV(pin*2);
 800036e:	4b12      	ldr	r3, [pc, #72]	@ (80003b8 <LEDInIt+0xb4>)
 8000370:	68db      	ldr	r3, [r3, #12]
 8000372:	687a      	ldr	r2, [r7, #4]
 8000374:	0052      	lsls	r2, r2, #1
 8000376:	3201      	adds	r2, #1
 8000378:	2101      	movs	r1, #1
 800037a:	fa01 f202 	lsl.w	r2, r1, r2
 800037e:	43d1      	mvns	r1, r2
 8000380:	687a      	ldr	r2, [r7, #4]
 8000382:	0052      	lsls	r2, r2, #1
 8000384:	2001      	movs	r0, #1
 8000386:	fa00 f202 	lsl.w	r2, r0, r2
 800038a:	430a      	orrs	r2, r1
 800038c:	4611      	mov	r1, r2
 800038e:	4a0a      	ldr	r2, [pc, #40]	@ (80003b8 <LEDInIt+0xb4>)
 8000390:	400b      	ands	r3, r1
 8000392:	60d3      	str	r3, [r2, #12]
	LEDGPIO->OTYPER &= ~BV(pin);
 8000394:	4b08      	ldr	r3, [pc, #32]	@ (80003b8 <LEDInIt+0xb4>)
 8000396:	685b      	ldr	r3, [r3, #4]
 8000398:	2101      	movs	r1, #1
 800039a:	687a      	ldr	r2, [r7, #4]
 800039c:	fa01 f202 	lsl.w	r2, r1, r2
 80003a0:	43d2      	mvns	r2, r2
 80003a2:	4611      	mov	r1, r2
 80003a4:	4a04      	ldr	r2, [pc, #16]	@ (80003b8 <LEDInIt+0xb4>)
 80003a6:	400b      	ands	r3, r1
 80003a8:	6053      	str	r3, [r2, #4]
}
 80003aa:	bf00      	nop
 80003ac:	370c      	adds	r7, #12
 80003ae:	46bd      	mov	sp, r7
 80003b0:	bc80      	pop	{r7}
 80003b2:	4770      	bx	lr
 80003b4:	40023800 	.word	0x40023800
 80003b8:	40020c00 	.word	0x40020c00

080003bc <LEDon>:

void LEDon(uint32_t pin)
{
 80003bc:	b480      	push	{r7}
 80003be:	b083      	sub	sp, #12
 80003c0:	af00      	add	r7, sp, #0
 80003c2:	6078      	str	r0, [r7, #4]
	LEDGPIO->ODR |= BV(pin);
 80003c4:	4b07      	ldr	r3, [pc, #28]	@ (80003e4 <LEDon+0x28>)
 80003c6:	695b      	ldr	r3, [r3, #20]
 80003c8:	2101      	movs	r1, #1
 80003ca:	687a      	ldr	r2, [r7, #4]
 80003cc:	fa01 f202 	lsl.w	r2, r1, r2
 80003d0:	4611      	mov	r1, r2
 80003d2:	4a04      	ldr	r2, [pc, #16]	@ (80003e4 <LEDon+0x28>)
 80003d4:	430b      	orrs	r3, r1
 80003d6:	6153      	str	r3, [r2, #20]
}
 80003d8:	bf00      	nop
 80003da:	370c      	adds	r7, #12
 80003dc:	46bd      	mov	sp, r7
 80003de:	bc80      	pop	{r7}
 80003e0:	4770      	bx	lr
 80003e2:	bf00      	nop
 80003e4:	40020c00 	.word	0x40020c00

080003e8 <LEDoff>:
void LEDoff(uint32_t pin)
{
 80003e8:	b480      	push	{r7}
 80003ea:	b083      	sub	sp, #12
 80003ec:	af00      	add	r7, sp, #0
 80003ee:	6078      	str	r0, [r7, #4]
	LEDGPIO->ODR &= ~BV(pin);
 80003f0:	4b07      	ldr	r3, [pc, #28]	@ (8000410 <LEDoff+0x28>)
 80003f2:	695b      	ldr	r3, [r3, #20]
 80003f4:	2101      	movs	r1, #1
 80003f6:	687a      	ldr	r2, [r7, #4]
 80003f8:	fa01 f202 	lsl.w	r2, r1, r2
 80003fc:	43d2      	mvns	r2, r2
 80003fe:	4611      	mov	r1, r2
 8000400:	4a03      	ldr	r2, [pc, #12]	@ (8000410 <LEDoff+0x28>)
 8000402:	400b      	ands	r3, r1
 8000404:	6153      	str	r3, [r2, #20]
}
 8000406:	bf00      	nop
 8000408:	370c      	adds	r7, #12
 800040a:	46bd      	mov	sp, r7
 800040c:	bc80      	pop	{r7}
 800040e:	4770      	bx	lr
 8000410:	40020c00 	.word	0x40020c00

08000414 <LEDblink>:
void LEDblink(uint32_t pin,uint32_t delay)
{
 8000414:	b580      	push	{r7, lr}
 8000416:	b082      	sub	sp, #8
 8000418:	af00      	add	r7, sp, #0
 800041a:	6078      	str	r0, [r7, #4]
 800041c:	6039      	str	r1, [r7, #0]
	LEDon(pin);
 800041e:	6878      	ldr	r0, [r7, #4]
 8000420:	f7ff ffcc 	bl	80003bc <LEDon>
	DelayMs(delay);
 8000424:	6838      	ldr	r0, [r7, #0]
 8000426:	f7ff ff45 	bl	80002b4 <DelayMs>
	LEDoff(pin);
 800042a:	6878      	ldr	r0, [r7, #4]
 800042c:	f7ff ffdc 	bl	80003e8 <LEDoff>
}
 8000430:	bf00      	nop
 8000432:	3708      	adds	r7, #8
 8000434:	46bd      	mov	sp, r7
 8000436:	bd80      	pop	{r7, pc}

08000438 <DelayMs>:
static inline void DelayMs(volatile uint32_t ms) {
 8000438:	b480      	push	{r7}
 800043a:	b085      	sub	sp, #20
 800043c:	af00      	add	r7, sp, #0
 800043e:	6078      	str	r0, [r7, #4]
	uint32_t init_ticks = DWT->CYCCNT;
 8000440:	4b0e      	ldr	r3, [pc, #56]	@ (800047c <DelayMs+0x44>)
 8000442:	685b      	ldr	r3, [r3, #4]
 8000444:	60fb      	str	r3, [r7, #12]
	uint32_t ticks = (SystemCoreClock / 1000);
 8000446:	4b0e      	ldr	r3, [pc, #56]	@ (8000480 <DelayMs+0x48>)
 8000448:	681b      	ldr	r3, [r3, #0]
 800044a:	4a0e      	ldr	r2, [pc, #56]	@ (8000484 <DelayMs+0x4c>)
 800044c:	fba2 2303 	umull	r2, r3, r2, r3
 8000450:	099b      	lsrs	r3, r3, #6
 8000452:	60bb      	str	r3, [r7, #8]
	ms *= ticks;
 8000454:	687b      	ldr	r3, [r7, #4]
 8000456:	68ba      	ldr	r2, [r7, #8]
 8000458:	fb02 f303 	mul.w	r3, r2, r3
 800045c:	607b      	str	r3, [r7, #4]
	while ((DWT->CYCCNT - init_ticks) < ms);
 800045e:	bf00      	nop
 8000460:	4b06      	ldr	r3, [pc, #24]	@ (800047c <DelayMs+0x44>)
 8000462:	685a      	ldr	r2, [r3, #4]
 8000464:	68fb      	ldr	r3, [r7, #12]
 8000466:	1ad2      	subs	r2, r2, r3
 8000468:	687b      	ldr	r3, [r7, #4]
 800046a:	429a      	cmp	r2, r3
 800046c:	d3f8      	bcc.n	8000460 <DelayMs+0x28>
}
 800046e:	bf00      	nop
 8000470:	bf00      	nop
 8000472:	3714      	adds	r7, #20
 8000474:	46bd      	mov	sp, r7
 8000476:	bc80      	pop	{r7}
 8000478:	4770      	bx	lr
 800047a:	bf00      	nop
 800047c:	e0001000 	.word	0xe0001000
 8000480:	20000000 	.word	0x20000000
 8000484:	10624dd3 	.word	0x10624dd3

08000488 <LIS_WriteIO>:


#include "mylis3dsh.h"

// Accel IO Functions
void LIS_WriteIO(uint8_t reg, uint8_t data[], uint8_t size) {
 8000488:	b580      	push	{r7, lr}
 800048a:	b084      	sub	sp, #16
 800048c:	af00      	add	r7, sp, #0
 800048e:	4603      	mov	r3, r0
 8000490:	6039      	str	r1, [r7, #0]
 8000492:	71fb      	strb	r3, [r7, #7]
 8000494:	4613      	mov	r3, r2
 8000496:	71bb      	strb	r3, [r7, #6]
	// enable slave
	SPI_CS_Enable();
 8000498:	f000 f96c 	bl	8000774 <SPI_CS_Enable>
	// write register address
	SPI_Transmit(reg);
 800049c:	79fb      	ldrb	r3, [r7, #7]
 800049e:	4618      	mov	r0, r3
 80004a0:	f000 f936 	bl	8000710 <SPI_Transmit>
	// write data byte(s)
	for(int i=0; i<size; i++)
 80004a4:	2300      	movs	r3, #0
 80004a6:	60fb      	str	r3, [r7, #12]
 80004a8:	e009      	b.n	80004be <LIS_WriteIO+0x36>
		SPI_Transmit(data[i]);
 80004aa:	68fb      	ldr	r3, [r7, #12]
 80004ac:	683a      	ldr	r2, [r7, #0]
 80004ae:	4413      	add	r3, r2
 80004b0:	781b      	ldrb	r3, [r3, #0]
 80004b2:	4618      	mov	r0, r3
 80004b4:	f000 f92c 	bl	8000710 <SPI_Transmit>
	for(int i=0; i<size; i++)
 80004b8:	68fb      	ldr	r3, [r7, #12]
 80004ba:	3301      	adds	r3, #1
 80004bc:	60fb      	str	r3, [r7, #12]
 80004be:	79bb      	ldrb	r3, [r7, #6]
 80004c0:	68fa      	ldr	r2, [r7, #12]
 80004c2:	429a      	cmp	r2, r3
 80004c4:	dbf1      	blt.n	80004aa <LIS_WriteIO+0x22>
	// disable slave
	SPI_CS_Disable();
 80004c6:	f000 f961 	bl	800078c <SPI_CS_Disable>
}
 80004ca:	bf00      	nop
 80004cc:	3710      	adds	r7, #16
 80004ce:	46bd      	mov	sp, r7
 80004d0:	bd80      	pop	{r7, pc}

080004d2 <LIS_ReadIO>:

void LIS_ReadIO(uint8_t reg, uint8_t data[], uint8_t size) {
 80004d2:	b580      	push	{r7, lr}
 80004d4:	b084      	sub	sp, #16
 80004d6:	af00      	add	r7, sp, #0
 80004d8:	4603      	mov	r3, r0
 80004da:	6039      	str	r1, [r7, #0]
 80004dc:	71fb      	strb	r3, [r7, #7]
 80004de:	4613      	mov	r3, r2
 80004e0:	71bb      	strb	r3, [r7, #6]
	reg |= BV(7); /*bug fixed R=1 */
 80004e2:	79fb      	ldrb	r3, [r7, #7]
 80004e4:	f063 037f 	orn	r3, r3, #127	@ 0x7f
 80004e8:	71fb      	strb	r3, [r7, #7]
	// enable slave
	SPI_CS_Enable();
 80004ea:	f000 f943 	bl	8000774 <SPI_CS_Enable>
	// write register address
	SPI_Transmit(reg);
 80004ee:	79fb      	ldrb	r3, [r7, #7]
 80004f0:	4618      	mov	r0, r3
 80004f2:	f000 f90d 	bl	8000710 <SPI_Transmit>
	// read data byte(s)
	for(int i=0; i<size; i++)
 80004f6:	2300      	movs	r3, #0
 80004f8:	60fb      	str	r3, [r7, #12]
 80004fa:	e00b      	b.n	8000514 <LIS_ReadIO+0x42>
		data[i] = SPI_Receive();
 80004fc:	f000 f92c 	bl	8000758 <SPI_Receive>
 8000500:	4603      	mov	r3, r0
 8000502:	4619      	mov	r1, r3
 8000504:	68fb      	ldr	r3, [r7, #12]
 8000506:	683a      	ldr	r2, [r7, #0]
 8000508:	4413      	add	r3, r2
 800050a:	b2ca      	uxtb	r2, r1
 800050c:	701a      	strb	r2, [r3, #0]
	for(int i=0; i<size; i++)
 800050e:	68fb      	ldr	r3, [r7, #12]
 8000510:	3301      	adds	r3, #1
 8000512:	60fb      	str	r3, [r7, #12]
 8000514:	79bb      	ldrb	r3, [r7, #6]
 8000516:	68fa      	ldr	r2, [r7, #12]
 8000518:	429a      	cmp	r2, r3
 800051a:	dbef      	blt.n	80004fc <LIS_ReadIO+0x2a>
	// disable slave
	SPI_CS_Disable();
 800051c:	f000 f936 	bl	800078c <SPI_CS_Disable>
}
 8000520:	bf00      	nop
 8000522:	3710      	adds	r7, #16
 8000524:	46bd      	mov	sp, r7
 8000526:	bd80      	pop	{r7, pc}

08000528 <LIS_Init>:

// Accel Init
void LIS_Init(void) {
 8000528:	b580      	push	{r7, lr}
 800052a:	b082      	sub	sp, #8
 800052c:	af00      	add	r7, sp, #0
	// Initialize SPI
	SPI_Init();
 800052e:	f000 f86b 	bl	8000608 <SPI_Init>
	DelayMs(3);
 8000532:	2003      	movs	r0, #3
 8000534:	f7ff ff80 	bl	8000438 <DelayMs>
	// Set Data rate and Enable axes
	uint8_t config = (LIS_DATARATE_25 | LIS_XYZ_ENABLE);
 8000538:	2347      	movs	r3, #71	@ 0x47
 800053a:	71fb      	strb	r3, [r7, #7]
	LIS_WriteIO(LIS_CTRL_REG4_ADDR, &config, 1);
 800053c:	1dfb      	adds	r3, r7, #7
 800053e:	2201      	movs	r2, #1
 8000540:	4619      	mov	r1, r3
 8000542:	2020      	movs	r0, #32
 8000544:	f7ff ffa0 	bl	8000488 <LIS_WriteIO>
	DelayMs(3);
 8000548:	2003      	movs	r0, #3
 800054a:	f7ff ff75 	bl	8000438 <DelayMs>
}
 800054e:	bf00      	nop
 8000550:	3708      	adds	r7, #8
 8000552:	46bd      	mov	sp, r7
 8000554:	bd80      	pop	{r7, pc}

08000556 <LIS_GetData>:

// Accel Get Raw Data
LIS_Data LIS_GetData(void) {
 8000556:	b580      	push	{r7, lr}
 8000558:	b086      	sub	sp, #24
 800055a:	af00      	add	r7, sp, #0
 800055c:	6078      	str	r0, [r7, #4]
	uint8_t data[2];
	uint16_t x, y, z;
	// read x low and x high and combine to 16-bit x reading
	LIS_ReadIO(LIS_OUT_X_L_ADDR, data, 2);
 800055e:	f107 0310 	add.w	r3, r7, #16
 8000562:	2202      	movs	r2, #2
 8000564:	4619      	mov	r1, r3
 8000566:	2028      	movs	r0, #40	@ 0x28
 8000568:	f7ff ffb3 	bl	80004d2 <LIS_ReadIO>
	x = ((uint16_t)data[1] << 8) | data[0];
 800056c:	7c7b      	ldrb	r3, [r7, #17]
 800056e:	021b      	lsls	r3, r3, #8
 8000570:	b21a      	sxth	r2, r3
 8000572:	7c3b      	ldrb	r3, [r7, #16]
 8000574:	b21b      	sxth	r3, r3
 8000576:	4313      	orrs	r3, r2
 8000578:	b21b      	sxth	r3, r3
 800057a:	82fb      	strh	r3, [r7, #22]
	// read y low and y high and combine to 16-bit y reading
	LIS_ReadIO(LIS_OUT_Y_L_ADDR, data, 2);
 800057c:	f107 0310 	add.w	r3, r7, #16
 8000580:	2202      	movs	r2, #2
 8000582:	4619      	mov	r1, r3
 8000584:	202a      	movs	r0, #42	@ 0x2a
 8000586:	f7ff ffa4 	bl	80004d2 <LIS_ReadIO>
	y = ((uint16_t)data[1] << 8) | data[0];
 800058a:	7c7b      	ldrb	r3, [r7, #17]
 800058c:	021b      	lsls	r3, r3, #8
 800058e:	b21a      	sxth	r2, r3
 8000590:	7c3b      	ldrb	r3, [r7, #16]
 8000592:	b21b      	sxth	r3, r3
 8000594:	4313      	orrs	r3, r2
 8000596:	b21b      	sxth	r3, r3
 8000598:	82bb      	strh	r3, [r7, #20]
	// read z low and z high and combine to 16-bit z reading
	LIS_ReadIO(LIS_OUT_Z_L_ADDR, data, 2);
 800059a:	f107 0310 	add.w	r3, r7, #16
 800059e:	2202      	movs	r2, #2
 80005a0:	4619      	mov	r1, r3
 80005a2:	202c      	movs	r0, #44	@ 0x2c
 80005a4:	f7ff ff95 	bl	80004d2 <LIS_ReadIO>
	z = ((uint16_t)data[1] << 8) | data[0];
 80005a8:	7c7b      	ldrb	r3, [r7, #17]
 80005aa:	021b      	lsls	r3, r3, #8
 80005ac:	b21a      	sxth	r2, r3
 80005ae:	7c3b      	ldrb	r3, [r7, #16]
 80005b0:	b21b      	sxth	r3, r3
 80005b2:	4313      	orrs	r3, r2
 80005b4:	b21b      	sxth	r3, r3
 80005b6:	827b      	strh	r3, [r7, #18]
	// fill readings in struct and return
	LIS_Data val;
	val.x = x;
 80005b8:	f9b7 3016 	ldrsh.w	r3, [r7, #22]
 80005bc:	813b      	strh	r3, [r7, #8]
	val.y = y;
 80005be:	f9b7 3014 	ldrsh.w	r3, [r7, #20]
 80005c2:	817b      	strh	r3, [r7, #10]
	val.z = z;
 80005c4:	f9b7 3012 	ldrsh.w	r3, [r7, #18]
 80005c8:	81bb      	strh	r3, [r7, #12]
	return val;
 80005ca:	687b      	ldr	r3, [r7, #4]
 80005cc:	461a      	mov	r2, r3
 80005ce:	f107 0308 	add.w	r3, r7, #8
 80005d2:	6818      	ldr	r0, [r3, #0]
 80005d4:	6010      	str	r0, [r2, #0]
 80005d6:	889b      	ldrh	r3, [r3, #4]
 80005d8:	8093      	strh	r3, [r2, #4]
}
 80005da:	6878      	ldr	r0, [r7, #4]
 80005dc:	3718      	adds	r7, #24
 80005de:	46bd      	mov	sp, r7
 80005e0:	bd80      	pop	{r7, pc}

080005e2 <LIS_DRdy>:

// Accel if Ready
int LIS_DRdy(void) {
 80005e2:	b580      	push	{r7, lr}
 80005e4:	b082      	sub	sp, #8
 80005e6:	af00      	add	r7, sp, #0
	uint8_t status;
	do {
		LIS_ReadIO(LIS_STATUS_ADDR, &status, 1);
 80005e8:	1dfb      	adds	r3, r7, #7
 80005ea:	2201      	movs	r2, #1
 80005ec:	4619      	mov	r1, r3
 80005ee:	2027      	movs	r0, #39	@ 0x27
 80005f0:	f7ff ff6f 	bl	80004d2 <LIS_ReadIO>
	} while( (status & LIS_STATUS_XYZ_Msk) == 0 );
 80005f4:	79fb      	ldrb	r3, [r7, #7]
 80005f6:	f003 0307 	and.w	r3, r3, #7
 80005fa:	2b00      	cmp	r3, #0
 80005fc:	d0f4      	beq.n	80005e8 <LIS_DRdy+0x6>
	return 1;
 80005fe:	2301      	movs	r3, #1
}
 8000600:	4618      	mov	r0, r3
 8000602:	3708      	adds	r7, #8
 8000604:	46bd      	mov	sp, r7
 8000606:	bd80      	pop	{r7, pc}

08000608 <SPI_Init>:
 *      Author: vinayak
 */

#include "myspi.h"

void SPI_Init(void) {
 8000608:	b580      	push	{r7, lr}
 800060a:	af00      	add	r7, sp, #0
	// SPI GPIO CS pin config
	RCC->AHB1ENR |= RCC_AHB1ENR_GPIOEEN;
 800060c:	4b3c      	ldr	r3, [pc, #240]	@ (8000700 <SPI_Init+0xf8>)
 800060e:	6b1b      	ldr	r3, [r3, #48]	@ 0x30
 8000610:	4a3b      	ldr	r2, [pc, #236]	@ (8000700 <SPI_Init+0xf8>)
 8000612:	f043 0310 	orr.w	r3, r3, #16
 8000616:	6313      	str	r3, [r2, #48]	@ 0x30
	GPIOE->MODER &= ~BV(SPI_CS_PIN*2+1); // GPIO mode=OUTPUT(0b01)
 8000618:	4b3a      	ldr	r3, [pc, #232]	@ (8000704 <SPI_Init+0xfc>)
 800061a:	681b      	ldr	r3, [r3, #0]
 800061c:	4a39      	ldr	r2, [pc, #228]	@ (8000704 <SPI_Init+0xfc>)
 800061e:	f023 0380 	bic.w	r3, r3, #128	@ 0x80
 8000622:	6013      	str	r3, [r2, #0]
	GPIOE->MODER |= BV(SPI_CS_PIN*2);
 8000624:	4b37      	ldr	r3, [pc, #220]	@ (8000704 <SPI_Init+0xfc>)
 8000626:	681b      	ldr	r3, [r3, #0]
 8000628:	4a36      	ldr	r2, [pc, #216]	@ (8000704 <SPI_Init+0xfc>)
 800062a:	f043 0340 	orr.w	r3, r3, #64	@ 0x40
 800062e:	6013      	str	r3, [r2, #0]
	GPIOE->OSPEEDR &= ~BV(SPI_CS_PIN*2+1); // GPIO speed=Medium(0b01)
 8000630:	4b34      	ldr	r3, [pc, #208]	@ (8000704 <SPI_Init+0xfc>)
 8000632:	689b      	ldr	r3, [r3, #8]
 8000634:	4a33      	ldr	r2, [pc, #204]	@ (8000704 <SPI_Init+0xfc>)
 8000636:	f023 0380 	bic.w	r3, r3, #128	@ 0x80
 800063a:	6093      	str	r3, [r2, #8]
	GPIOE->OSPEEDR |= BV(SPI_CS_PIN*2);
 800063c:	4b31      	ldr	r3, [pc, #196]	@ (8000704 <SPI_Init+0xfc>)
 800063e:	689b      	ldr	r3, [r3, #8]
 8000640:	4a30      	ldr	r2, [pc, #192]	@ (8000704 <SPI_Init+0xfc>)
 8000642:	f043 0340 	orr.w	r3, r3, #64	@ 0x40
 8000646:	6093      	str	r3, [r2, #8]
	GPIOE->PUPDR &= ~(BV(SPI_CS_PIN*2+1) | BV(SPI_CS_PIN*2)); // GPIO No Pull-up/down (0b00)
 8000648:	4b2e      	ldr	r3, [pc, #184]	@ (8000704 <SPI_Init+0xfc>)
 800064a:	68db      	ldr	r3, [r3, #12]
 800064c:	4a2d      	ldr	r2, [pc, #180]	@ (8000704 <SPI_Init+0xfc>)
 800064e:	f023 03c0 	bic.w	r3, r3, #192	@ 0xc0
 8000652:	60d3      	str	r3, [r2, #12]
	GPIOE->OTYPER &= ~BV(SPI_CS_PIN);	// GPIO push-pull
 8000654:	4b2b      	ldr	r3, [pc, #172]	@ (8000704 <SPI_Init+0xfc>)
 8000656:	685b      	ldr	r3, [r3, #4]
 8000658:	4a2a      	ldr	r2, [pc, #168]	@ (8000704 <SPI_Init+0xfc>)
 800065a:	f023 0308 	bic.w	r3, r3, #8
 800065e:	6053      	str	r3, [r2, #4]
	// Disable slave initially
	SPI_CS_Disable();
 8000660:	f000 f894 	bl	800078c <SPI_CS_Disable>

	// SPI GPIO MOSI, MISO, SCLK pin config
	RCC->AHB1ENR |= RCC_AHB1ENR_GPIOAEN;
 8000664:	4b26      	ldr	r3, [pc, #152]	@ (8000700 <SPI_Init+0xf8>)
 8000666:	6b1b      	ldr	r3, [r3, #48]	@ 0x30
 8000668:	4a25      	ldr	r2, [pc, #148]	@ (8000700 <SPI_Init+0xf8>)
 800066a:	f043 0301 	orr.w	r3, r3, #1
 800066e:	6313      	str	r3, [r2, #48]	@ 0x30
	GPIOA->MODER &= ~(BV(SPI_MOSI_PIN*2)|BV(SPI_MISO_PIN*2)|BV(SPI_SCLK_PIN*2)); // GPIO mode=AltFn(0b10)
 8000670:	4b25      	ldr	r3, [pc, #148]	@ (8000708 <SPI_Init+0x100>)
 8000672:	681b      	ldr	r3, [r3, #0]
 8000674:	4a24      	ldr	r2, [pc, #144]	@ (8000708 <SPI_Init+0x100>)
 8000676:	f423 43a8 	bic.w	r3, r3, #21504	@ 0x5400
 800067a:	6013      	str	r3, [r2, #0]
	GPIOA->MODER |= (BV(SPI_MOSI_PIN*2+1)|BV(SPI_MISO_PIN*2+1)|BV(SPI_SCLK_PIN*2+1));
 800067c:	4b22      	ldr	r3, [pc, #136]	@ (8000708 <SPI_Init+0x100>)
 800067e:	681b      	ldr	r3, [r3, #0]
 8000680:	4a21      	ldr	r2, [pc, #132]	@ (8000708 <SPI_Init+0x100>)
 8000682:	f443 4328 	orr.w	r3, r3, #43008	@ 0xa800
 8000686:	6013      	str	r3, [r2, #0]
	GPIOA->OSPEEDR &= ~(BV(SPI_MOSI_PIN*2+1)|BV(SPI_MISO_PIN*2+1)|BV(SPI_SCLK_PIN*2+1)); // GPIO speed=Medium(0b01)
 8000688:	4b1f      	ldr	r3, [pc, #124]	@ (8000708 <SPI_Init+0x100>)
 800068a:	689b      	ldr	r3, [r3, #8]
 800068c:	4a1e      	ldr	r2, [pc, #120]	@ (8000708 <SPI_Init+0x100>)
 800068e:	f423 4328 	bic.w	r3, r3, #43008	@ 0xa800
 8000692:	6093      	str	r3, [r2, #8]
	GPIOA->OSPEEDR |= (BV(SPI_MOSI_PIN*2)|BV(SPI_MISO_PIN*2)|BV(SPI_SCLK_PIN*2));
 8000694:	4b1c      	ldr	r3, [pc, #112]	@ (8000708 <SPI_Init+0x100>)
 8000696:	689b      	ldr	r3, [r3, #8]
 8000698:	4a1b      	ldr	r2, [pc, #108]	@ (8000708 <SPI_Init+0x100>)
 800069a:	f443 43a8 	orr.w	r3, r3, #21504	@ 0x5400
 800069e:	6093      	str	r3, [r2, #8]
	GPIOA->PUPDR &= ~(BV(SPI_MOSI_PIN*2)|BV(SPI_MISO_PIN*2)|BV(SPI_SCLK_PIN*2)); // GPIO Pull-Down (0b10)
 80006a0:	4b19      	ldr	r3, [pc, #100]	@ (8000708 <SPI_Init+0x100>)
 80006a2:	68db      	ldr	r3, [r3, #12]
 80006a4:	4a18      	ldr	r2, [pc, #96]	@ (8000708 <SPI_Init+0x100>)
 80006a6:	f423 43a8 	bic.w	r3, r3, #21504	@ 0x5400
 80006aa:	60d3      	str	r3, [r2, #12]
	GPIOA->PUPDR |= (BV(SPI_MOSI_PIN*2+1)|BV(SPI_MISO_PIN*2+1)|BV(SPI_SCLK_PIN*2+1));
 80006ac:	4b16      	ldr	r3, [pc, #88]	@ (8000708 <SPI_Init+0x100>)
 80006ae:	68db      	ldr	r3, [r3, #12]
 80006b0:	4a15      	ldr	r2, [pc, #84]	@ (8000708 <SPI_Init+0x100>)
 80006b2:	f443 4328 	orr.w	r3, r3, #43008	@ 0xa800
 80006b6:	60d3      	str	r3, [r2, #12]
	GPIOA->OTYPER &= ~(BV(SPI_MOSI_PIN)|BV(SPI_MISO_PIN)|BV(SPI_SCLK_PIN));	// GPIO push-pull
 80006b8:	4b13      	ldr	r3, [pc, #76]	@ (8000708 <SPI_Init+0x100>)
 80006ba:	685b      	ldr	r3, [r3, #4]
 80006bc:	4a12      	ldr	r2, [pc, #72]	@ (8000708 <SPI_Init+0x100>)
 80006be:	f023 03e0 	bic.w	r3, r3, #224	@ 0xe0
 80006c2:	6053      	str	r3, [r2, #4]
	GPIOA->AFR[0] |= (SPI_ALT_FN << GPIO_AFRL_AFSEL5_Pos) | (SPI_ALT_FN << GPIO_AFRL_AFSEL6_Pos) | (SPI_ALT_FN << GPIO_AFRL_AFSEL7_Pos); /* BUG FIXED |= */
 80006c4:	4b10      	ldr	r3, [pc, #64]	@ (8000708 <SPI_Init+0x100>)
 80006c6:	6a1b      	ldr	r3, [r3, #32]
 80006c8:	4a0f      	ldr	r2, [pc, #60]	@ (8000708 <SPI_Init+0x100>)
 80006ca:	f043 43aa 	orr.w	r3, r3, #1426063360	@ 0x55000000
 80006ce:	f443 03a0 	orr.w	r3, r3, #5242880	@ 0x500000
 80006d2:	6213      	str	r3, [r2, #32]

	// SPI bus config
	// Enable SPI clock
	RCC->APB2ENR |= RCC_APB2ENR_SPI1EN;
 80006d4:	4b0a      	ldr	r3, [pc, #40]	@ (8000700 <SPI_Init+0xf8>)
 80006d6:	6c5b      	ldr	r3, [r3, #68]	@ 0x44
 80006d8:	4a09      	ldr	r2, [pc, #36]	@ (8000700 <SPI_Init+0xf8>)
 80006da:	f443 5380 	orr.w	r3, r3, #4096	@ 0x1000
 80006de:	6453      	str	r3, [r2, #68]	@ 0x44
	// CR1: Master=1, BR=0x02(010), LSBF=0, DFF=0 (8-bit), CRCEN=0,
	//		SSM=1 & SSI=1 (Soft Slave Manage), BIDI=0 and RXONLY=0 for Full Duplex,
	//		CPOL=0 and CPHA=0 for LIS3DSH
	SPI1->CR1 = SPI_CR1_MSTR | SPI_CR1_SSM | SPI_CR1_SSI | (0x02 << SPI_CR1_BR_Pos);
 80006e0:	4b0a      	ldr	r3, [pc, #40]	@ (800070c <SPI_Init+0x104>)
 80006e2:	f44f 7245 	mov.w	r2, #788	@ 0x314
 80006e6:	601a      	str	r2, [r3, #0]

	// CR2 = Motorola Frame, No intr enabled, No dma enabled, No SS output
	SPI1->CR2 = 0x0000;
 80006e8:	4b08      	ldr	r3, [pc, #32]	@ (800070c <SPI_Init+0x104>)
 80006ea:	2200      	movs	r2, #0
 80006ec:	605a      	str	r2, [r3, #4]
	// Enable SPI
	SPI1->CR1 |= SPI_CR1_SPE; /*bug fixed |= */
 80006ee:	4b07      	ldr	r3, [pc, #28]	@ (800070c <SPI_Init+0x104>)
 80006f0:	681b      	ldr	r3, [r3, #0]
 80006f2:	4a06      	ldr	r2, [pc, #24]	@ (800070c <SPI_Init+0x104>)
 80006f4:	f043 0340 	orr.w	r3, r3, #64	@ 0x40
 80006f8:	6013      	str	r3, [r2, #0]
}
 80006fa:	bf00      	nop
 80006fc:	bd80      	pop	{r7, pc}
 80006fe:	bf00      	nop
 8000700:	40023800 	.word	0x40023800
 8000704:	40021000 	.word	0x40021000
 8000708:	40020000 	.word	0x40020000
 800070c:	40013000 	.word	0x40013000

08000710 <SPI_Transmit>:

uint16_t SPI_Transmit(uint8_t dataW) {
 8000710:	b480      	push	{r7}
 8000712:	b085      	sub	sp, #20
 8000714:	af00      	add	r7, sp, #0
 8000716:	4603      	mov	r3, r0
 8000718:	71fb      	strb	r3, [r7, #7]
	// wait while tx regr is not empty
	while(!(SPI1->SR & SPI_SR_TXE))
 800071a:	bf00      	nop
 800071c:	4b0d      	ldr	r3, [pc, #52]	@ (8000754 <SPI_Transmit+0x44>)
 800071e:	689b      	ldr	r3, [r3, #8]
 8000720:	f003 0302 	and.w	r3, r3, #2
 8000724:	2b00      	cmp	r3, #0
 8000726:	d0f9      	beq.n	800071c <SPI_Transmit+0xc>
		;
	// write given data into spi data regr
	uint32_t frame = dataW;
 8000728:	79fb      	ldrb	r3, [r7, #7]
 800072a:	60fb      	str	r3, [r7, #12]
	SPI1->DR = frame;
 800072c:	4a09      	ldr	r2, [pc, #36]	@ (8000754 <SPI_Transmit+0x44>)
 800072e:	68fb      	ldr	r3, [r7, #12]
 8000730:	60d3      	str	r3, [r2, #12]
	// wait while rx regr is empty
	while(!(SPI1->SR & SPI_SR_RXNE))
 8000732:	bf00      	nop
 8000734:	4b07      	ldr	r3, [pc, #28]	@ (8000754 <SPI_Transmit+0x44>)
 8000736:	689b      	ldr	r3, [r3, #8]
 8000738:	f003 0301 	and.w	r3, r3, #1
 800073c:	2b00      	cmp	r3, #0
 800073e:	d0f9      	beq.n	8000734 <SPI_Transmit+0x24>
		;
	// read data from spi data regr
	frame = SPI1->DR;
 8000740:	4b04      	ldr	r3, [pc, #16]	@ (8000754 <SPI_Transmit+0x44>)
 8000742:	68db      	ldr	r3, [r3, #12]
 8000744:	60fb      	str	r3, [r7, #12]
	return frame;
 8000746:	68fb      	ldr	r3, [r7, #12]
 8000748:	b29b      	uxth	r3, r3
}
 800074a:	4618      	mov	r0, r3
 800074c:	3714      	adds	r7, #20
 800074e:	46bd      	mov	sp, r7
 8000750:	bc80      	pop	{r7}
 8000752:	4770      	bx	lr
 8000754:	40013000 	.word	0x40013000

08000758 <SPI_Receive>:

uint16_t SPI_Receive(void) {
 8000758:	b580      	push	{r7, lr}
 800075a:	b082      	sub	sp, #8
 800075c:	af00      	add	r7, sp, #0
	// send dummy data (0x00) and receive data from slave
	uint32_t val = SPI_Transmit(0x00);
 800075e:	2000      	movs	r0, #0
 8000760:	f7ff ffd6 	bl	8000710 <SPI_Transmit>
 8000764:	4603      	mov	r3, r0
 8000766:	607b      	str	r3, [r7, #4]
	// return received data
	return val;
 8000768:	687b      	ldr	r3, [r7, #4]
 800076a:	b29b      	uxth	r3, r3
}
 800076c:	4618      	mov	r0, r3
 800076e:	3708      	adds	r7, #8
 8000770:	46bd      	mov	sp, r7
 8000772:	bd80      	pop	{r7, pc}

08000774 <SPI_CS_Enable>:

void SPI_CS_Enable(void) {
 8000774:	b480      	push	{r7}
 8000776:	af00      	add	r7, sp, #0
	// PE.3 = 0 (active low)
	GPIOE->BSRR = BV(SPI_CS_CLR_BIT);
 8000778:	4b03      	ldr	r3, [pc, #12]	@ (8000788 <SPI_CS_Enable+0x14>)
 800077a:	f44f 2200 	mov.w	r2, #524288	@ 0x80000
 800077e:	619a      	str	r2, [r3, #24]
}
 8000780:	bf00      	nop
 8000782:	46bd      	mov	sp, r7
 8000784:	bc80      	pop	{r7}
 8000786:	4770      	bx	lr
 8000788:	40021000 	.word	0x40021000

0800078c <SPI_CS_Disable>:

void SPI_CS_Disable(void) {
 800078c:	b480      	push	{r7}
 800078e:	af00      	add	r7, sp, #0
	// PE.3 = 1 (active low)
	GPIOE->BSRR = BV(SPI_CS_SET_BIT);
 8000790:	4b03      	ldr	r3, [pc, #12]	@ (80007a0 <SPI_CS_Disable+0x14>)
 8000792:	2208      	movs	r2, #8
 8000794:	619a      	str	r2, [r3, #24]
}
 8000796:	bf00      	nop
 8000798:	46bd      	mov	sp, r7
 800079a:	bc80      	pop	{r7}
 800079c:	4770      	bx	lr
 800079e:	bf00      	nop
 80007a0:	40021000 	.word	0x40021000

080007a4 <SystemInit>:
  *         configuration.
  * @param  None
  * @retval None
  */
void SystemInit(void)
{
 80007a4:	b580      	push	{r7, lr}
 80007a6:	af00      	add	r7, sp, #0
  DWT_Init();
 80007a8:	f000 f802 	bl	80007b0 <DWT_Init>
}
 80007ac:	bf00      	nop
 80007ae:	bd80      	pop	{r7, pc}

080007b0 <DWT_Init>:
}
#pragma GCC pop_options


uint32_t DWT_Init(void)
{
 80007b0:	b480      	push	{r7}
 80007b2:	af00      	add	r7, sp, #0
    /* Disable TRC */
    CoreDebug->DEMCR &= ~CoreDebug_DEMCR_TRCENA_Msk; // ~0x01000000;
 80007b4:	4b14      	ldr	r3, [pc, #80]	@ (8000808 <DWT_Init+0x58>)
 80007b6:	68db      	ldr	r3, [r3, #12]
 80007b8:	4a13      	ldr	r2, [pc, #76]	@ (8000808 <DWT_Init+0x58>)
 80007ba:	f023 7380 	bic.w	r3, r3, #16777216	@ 0x1000000
 80007be:	60d3      	str	r3, [r2, #12]
    /* Enable TRC */
    CoreDebug->DEMCR |=  CoreDebug_DEMCR_TRCENA_Msk; // 0x01000000;
 80007c0:	4b11      	ldr	r3, [pc, #68]	@ (8000808 <DWT_Init+0x58>)
 80007c2:	68db      	ldr	r3, [r3, #12]
 80007c4:	4a10      	ldr	r2, [pc, #64]	@ (8000808 <DWT_Init+0x58>)
 80007c6:	f043 7380 	orr.w	r3, r3, #16777216	@ 0x1000000
 80007ca:	60d3      	str	r3, [r2, #12]
    /* Disable clock cycle counter */
    DWT->CTRL &= ~DWT_CTRL_CYCCNTENA_Msk; //~0x00000001;
 80007cc:	4b0f      	ldr	r3, [pc, #60]	@ (800080c <DWT_Init+0x5c>)
 80007ce:	681b      	ldr	r3, [r3, #0]
 80007d0:	4a0e      	ldr	r2, [pc, #56]	@ (800080c <DWT_Init+0x5c>)
 80007d2:	f023 0301 	bic.w	r3, r3, #1
 80007d6:	6013      	str	r3, [r2, #0]
    /* Enable  clock cycle counter */
    DWT->CTRL |=  DWT_CTRL_CYCCNTENA_Msk; //0x00000001;
 80007d8:	4b0c      	ldr	r3, [pc, #48]	@ (800080c <DWT_Init+0x5c>)
 80007da:	681b      	ldr	r3, [r3, #0]
 80007dc:	4a0b      	ldr	r2, [pc, #44]	@ (800080c <DWT_Init+0x5c>)
 80007de:	f043 0301 	orr.w	r3, r3, #1
 80007e2:	6013      	str	r3, [r2, #0]
    /* Reset the clock cycle counter value */
    DWT->CYCCNT = 0;
 80007e4:	4b09      	ldr	r3, [pc, #36]	@ (800080c <DWT_Init+0x5c>)
 80007e6:	2200      	movs	r2, #0
 80007e8:	605a      	str	r2, [r3, #4]
    /* 3 NO OPERATION instructions */
    __ASM volatile ("NOP");
 80007ea:	bf00      	nop
    __ASM volatile ("NOP");
 80007ec:	bf00      	nop
    __ASM volatile ("NOP");
 80007ee:	bf00      	nop
    /* Check if clock cycle counter has started: 0 on success */
    return !(DWT->CYCCNT);
 80007f0:	4b06      	ldr	r3, [pc, #24]	@ (800080c <DWT_Init+0x5c>)
 80007f2:	685b      	ldr	r3, [r3, #4]
 80007f4:	2b00      	cmp	r3, #0
 80007f6:	bf0c      	ite	eq
 80007f8:	2301      	moveq	r3, #1
 80007fa:	2300      	movne	r3, #0
 80007fc:	b2db      	uxtb	r3, r3
}
 80007fe:	4618      	mov	r0, r3
 8000800:	46bd      	mov	sp, r7
 8000802:	bc80      	pop	{r7}
 8000804:	4770      	bx	lr
 8000806:	bf00      	nop
 8000808:	e000edf0 	.word	0xe000edf0
 800080c:	e0001000 	.word	0xe0001000

08000810 <Reset_Handler>:

  .section .text.Reset_Handler
  .weak Reset_Handler
  .type Reset_Handler, %function
Reset_Handler:
  ldr   r0, =_estack
 8000810:	480d      	ldr	r0, [pc, #52]	@ (8000848 <LoopForever+0x2>)
  mov   sp, r0          /* set stack pointer */
 8000812:	4685      	mov	sp, r0
/* Call the clock system initialization function.*/
  bl  SystemInit
 8000814:	f7ff ffc6 	bl	80007a4 <SystemInit>

/* Copy the data segment initializers from flash to SRAM */
  ldr r0, =_sdata
 8000818:	480c      	ldr	r0, [pc, #48]	@ (800084c <LoopForever+0x6>)
  ldr r1, =_edata
 800081a:	490d      	ldr	r1, [pc, #52]	@ (8000850 <LoopForever+0xa>)
  ldr r2, =_sidata
 800081c:	4a0d      	ldr	r2, [pc, #52]	@ (8000854 <LoopForever+0xe>)
  movs r3, #0
 800081e:	2300      	movs	r3, #0
  b LoopCopyDataInit
 8000820:	e002      	b.n	8000828 <LoopCopyDataInit>

08000822 <CopyDataInit>:

CopyDataInit:
  ldr r4, [r2, r3]
 8000822:	58d4      	ldr	r4, [r2, r3]
  str r4, [r0, r3]
 8000824:	50c4      	str	r4, [r0, r3]
  adds r3, r3, #4
 8000826:	3304      	adds	r3, #4

08000828 <LoopCopyDataInit>:

LoopCopyDataInit:
  adds r4, r0, r3
 8000828:	18c4      	adds	r4, r0, r3
  cmp r4, r1
 800082a:	428c      	cmp	r4, r1
  bcc CopyDataInit
 800082c:	d3f9      	bcc.n	8000822 <CopyDataInit>

/* Zero fill the bss segment. */
  ldr r2, =_sbss
 800082e:	4a0a      	ldr	r2, [pc, #40]	@ (8000858 <LoopForever+0x12>)
  ldr r4, =_ebss
 8000830:	4c0a      	ldr	r4, [pc, #40]	@ (800085c <LoopForever+0x16>)
  movs r3, #0
 8000832:	2300      	movs	r3, #0
  b LoopFillZerobss
 8000834:	e001      	b.n	800083a <LoopFillZerobss>

08000836 <FillZerobss>:

FillZerobss:
  str  r3, [r2]
 8000836:	6013      	str	r3, [r2, #0]
  adds r2, r2, #4
 8000838:	3204      	adds	r2, #4

0800083a <LoopFillZerobss>:

LoopFillZerobss:
  cmp r2, r4
 800083a:	42a2      	cmp	r2, r4
  bcc FillZerobss
 800083c:	d3fb      	bcc.n	8000836 <FillZerobss>

/* Call static constructors */
  bl __libc_init_array
 800083e:	f000 f811 	bl	8000864 <__libc_init_array>
/* Call the application's entry point.*/
  bl main
 8000842:	f7ff fce9 	bl	8000218 <main>

08000846 <LoopForever>:

LoopForever:
  b LoopForever
 8000846:	e7fe      	b.n	8000846 <LoopForever>
  ldr   r0, =_estack
 8000848:	20020000 	.word	0x20020000
  ldr r0, =_sdata
 800084c:	20000000 	.word	0x20000000
  ldr r1, =_edata
 8000850:	20000004 	.word	0x20000004
  ldr r2, =_sidata
 8000854:	080008cc 	.word	0x080008cc
  ldr r2, =_sbss
 8000858:	20000004 	.word	0x20000004
  ldr r4, =_ebss
 800085c:	20000020 	.word	0x20000020

08000860 <ADC_IRQHandler>:
 * @retval : None
*/
  .section .text.Default_Handler,"ax",%progbits
Default_Handler:
Infinite_Loop:
  b Infinite_Loop
 8000860:	e7fe      	b.n	8000860 <ADC_IRQHandler>
	...

08000864 <__libc_init_array>:
 8000864:	b570      	push	{r4, r5, r6, lr}
 8000866:	4d0d      	ldr	r5, [pc, #52]	@ (800089c <__libc_init_array+0x38>)
 8000868:	4c0d      	ldr	r4, [pc, #52]	@ (80008a0 <__libc_init_array+0x3c>)
 800086a:	1b64      	subs	r4, r4, r5
 800086c:	10a4      	asrs	r4, r4, #2
 800086e:	2600      	movs	r6, #0
 8000870:	42a6      	cmp	r6, r4
 8000872:	d109      	bne.n	8000888 <__libc_init_array+0x24>
 8000874:	4d0b      	ldr	r5, [pc, #44]	@ (80008a4 <__libc_init_array+0x40>)
 8000876:	4c0c      	ldr	r4, [pc, #48]	@ (80008a8 <__libc_init_array+0x44>)
 8000878:	f000 f818 	bl	80008ac <_init>
 800087c:	1b64      	subs	r4, r4, r5
 800087e:	10a4      	asrs	r4, r4, #2
 8000880:	2600      	movs	r6, #0
 8000882:	42a6      	cmp	r6, r4
 8000884:	d105      	bne.n	8000892 <__libc_init_array+0x2e>
 8000886:	bd70      	pop	{r4, r5, r6, pc}
 8000888:	f855 3b04 	ldr.w	r3, [r5], #4
 800088c:	4798      	blx	r3
 800088e:	3601      	adds	r6, #1
 8000890:	e7ee      	b.n	8000870 <__libc_init_array+0xc>
 8000892:	f855 3b04 	ldr.w	r3, [r5], #4
 8000896:	4798      	blx	r3
 8000898:	3601      	adds	r6, #1
 800089a:	e7f2      	b.n	8000882 <__libc_init_array+0x1e>
 800089c:	080008c4 	.word	0x080008c4
 80008a0:	080008c4 	.word	0x080008c4
 80008a4:	080008c4 	.word	0x080008c4
 80008a8:	080008c8 	.word	0x080008c8

080008ac <_init>:
 80008ac:	b5f8      	push	{r3, r4, r5, r6, r7, lr}
 80008ae:	bf00      	nop
 80008b0:	bcf8      	pop	{r3, r4, r5, r6, r7}
 80008b2:	bc08      	pop	{r3}
 80008b4:	469e      	mov	lr, r3
 80008b6:	4770      	bx	lr

080008b8 <_fini>:
 80008b8:	b5f8      	push	{r3, r4, r5, r6, r7, lr}
 80008ba:	bf00      	nop
 80008bc:	bcf8      	pop	{r3, r4, r5, r6, r7}
 80008be:	bc08      	pop	{r3}
 80008c0:	469e      	mov	lr, r3
 80008c2:	4770      	bx	lr
